target datalayout = "e-m:e-p270:32:32-p271:32:32-p272:64:64-i64:64-i128:128-f80:128-n8:16:32:64-S128"
target triple = "x86_64-pc-linux-gnu"

%struct._scsi_task_data = type { i32, ptr, ptr }
%struct._itlq_nexus_t = type { i32, i32, i16, i16, i16, i16, i32, i32, i32, %struct.nstime_t, %struct.nstime_t, ptr }
%struct.nstime_t = type { i64, i32 }

@cdb_control_fields = hidden constant [6 x ptr] [ptr @hf_scsi_control_vendor_specific, ptr @hf_scsi_control_reserved, ptr @hf_scsi_control_naca, ptr @hf_scsi_control_obs1, ptr @hf_scsi_control_obs2, ptr null], align 16
@hf_scsi_alloclen16 = hidden global i32 0, align 4
@hf_scsi_control = hidden global i32 0, align 4
@ett_scsi_control = hidden global i32 0, align 4
@hf_scsi_persresvin_svcaction = internal global i32 0, align 4
@hf_scsi_persresvin_generation_number = internal global i32 0, align 4
@hf_scsi_persresvin_additional_length = internal global i32 0, align 4
@hf_scsi_persresv_key = internal global i32 0, align 4
@hf_scsi_persresv_scopeaddr = internal global i32 0, align 4
@hf_scsi_persresv_scope = internal global i32 0, align 4
@hf_scsi_persresv_type = internal global i32 0, align 4

; Function Attrs: nounwind uwtable
define hidden void @dissect_spc_persistentreservein(ptr noundef %0, ptr noundef %1, ptr noundef %2, i32 noundef %3, i32 noundef %4, i32 noundef %5, i32 noundef %6, ptr noundef %7) #0 {
  %9 = alloca ptr, align 8
  %10 = alloca ptr, align 8
  %11 = alloca ptr, align 8
  %12 = alloca i32, align 4
  %13 = alloca i32, align 4
  %14 = alloca i32, align 4
  %15 = alloca i32, align 4
  %16 = alloca ptr, align 8
  %17 = alloca i16, align 2
  %18 = alloca i32, align 4
  %19 = alloca i32, align 4
  %20 = alloca i32, align 4
  store ptr %0, ptr %9, align 8
  store ptr %1, ptr %10, align 8
  store ptr %2, ptr %11, align 8
  store i32 %3, ptr %12, align 4
  store i32 %4, ptr %13, align 4
  store i32 %5, ptr %14, align 4
  store i32 %6, ptr %15, align 4
  store ptr %7, ptr %16, align 8
  %21 = load ptr, ptr %11, align 8
  %22 = icmp ne ptr %21, null
  br i1 %22, label %24, label %23

23:                                               ; preds = %8
  br label %152

24:                                               ; preds = %8
  %25 = load i32, ptr %13, align 4
  %26 = icmp ne i32 %25, 0
  br i1 %26, label %27, label %57

27:                                               ; preds = %24
  %28 = load i32, ptr %14, align 4
  %29 = icmp ne i32 %28, 0
  br i1 %29, label %30, label %57

30:                                               ; preds = %27
  %31 = load ptr, ptr %11, align 8
  %32 = load i32, ptr @hf_scsi_persresvin_svcaction, align 4
  %33 = load ptr, ptr %9, align 8
  %34 = load i32, ptr %12, align 4
  %35 = call ptr @proto_tree_add_item(ptr noundef %31, i32 noundef %32, ptr noundef %33, i32 noundef %34, i32 noundef 1, i32 noundef 0)
  %36 = load ptr, ptr %11, align 8
  %37 = load i32, ptr @hf_scsi_alloclen16, align 4
  %38 = load ptr, ptr %9, align 8
  %39 = load i32, ptr %12, align 4
  %40 = add i32 %39, 6
  %41 = call ptr @proto_tree_add_item(ptr noundef %36, i32 noundef %37, ptr noundef %38, i32 noundef %40, i32 noundef 2, i32 noundef 0)
  %42 = load ptr, ptr %11, align 8
  %43 = load ptr, ptr %9, align 8
  %44 = load i32, ptr %12, align 4
  %45 = add i32 %44, 8
  %46 = load i32, ptr @hf_scsi_control, align 4
  %47 = load i32, ptr @ett_scsi_control, align 4
  %48 = call ptr @proto_tree_add_bitmask(ptr noundef %42, ptr noundef %43, i32 noundef %45, i32 noundef %46, i32 noundef %47, ptr noundef @cdb_control_fields, i32 noundef 0)
  %49 = load ptr, ptr %9, align 8
  %50 = load i32, ptr %12, align 4
  %51 = call zeroext i8 @tvb_get_guint8(ptr noundef %49, i32 noundef %50)
  %52 = zext i8 %51 to i16
  %53 = load ptr, ptr %16, align 8
  %54 = getelementptr inbounds %struct._scsi_task_data, ptr %53, i32 0, i32 1
  %55 = load ptr, ptr %54, align 8
  %56 = getelementptr inbounds %struct._itlq_nexus_t, ptr %55, i32 0, i32 4
  store i16 %52, ptr %56, align 4
  br label %152

57:                                               ; preds = %27, %24
  %58 = load ptr, ptr %16, align 8
  %59 = icmp ne ptr %58, null
  br i1 %59, label %60, label %66

60:                                               ; preds = %57
  %61 = load ptr, ptr %16, align 8
  %62 = getelementptr inbounds %struct._scsi_task_data, ptr %61, i32 0, i32 1
  %63 = load ptr, ptr %62, align 8
  %64 = getelementptr inbounds %struct._itlq_nexus_t, ptr %63, i32 0, i32 4
  %65 = load i16, ptr %64, align 4
  store i16 %65, ptr %17, align 2
  br label %67

66:                                               ; preds = %57
  store i16 255, ptr %17, align 2
  br label %67

67:                                               ; preds = %66, %60
  %68 = load ptr, ptr %11, align 8
  %69 = load i32, ptr @hf_scsi_persresvin_generation_number, align 4
  %70 = load ptr, ptr %9, align 8
  %71 = load i32, ptr %12, align 4
  %72 = call ptr @proto_tree_add_item(ptr noundef %68, i32 noundef %69, ptr noundef %70, i32 noundef %71, i32 noundef 4, i32 noundef 0)
  %73 = load ptr, ptr %9, align 8
  %74 = load i32, ptr %12, align 4
  %75 = add i32 %74, 4
  %76 = call i32 @tvb_get_ntohl(ptr noundef %73, i32 noundef %75)
  store i32 %76, ptr %20, align 4
  %77 = load ptr, ptr %11, align 8
  %78 = load i32, ptr @hf_scsi_persresvin_additional_length, align 4
  %79 = load ptr, ptr %9, align 8
  %80 = load i32, ptr %12, align 4
  %81 = add i32 %80, 4
  %82 = call ptr @proto_tree_add_item(ptr noundef %77, i32 noundef %78, ptr noundef %79, i32 noundef %81, i32 noundef 4, i32 noundef 0)
  %83 = load i32, ptr %15, align 4
  %84 = load i32, ptr %20, align 4
  %85 = icmp ugt i32 %83, %84
  br i1 %85, label %86, label %88

86:                                               ; preds = %67
  %87 = load i32, ptr %20, align 4
  br label %90

88:                                               ; preds = %67
  %89 = load i32, ptr %15, align 4
  br label %90

90:                                               ; preds = %88, %86
  %91 = phi i32 [ %87, %86 ], [ %89, %88 ]
  store i32 %91, ptr %20, align 4
  %92 = load i16, ptr %17, align 2
  %93 = zext i16 %92 to i32
  %94 = and i32 %93, 31
  %95 = icmp eq i32 %94, 0
  br i1 %95, label %96, label %117

96:                                               ; preds = %90
  %97 = load i32, ptr %20, align 4
  %98 = udiv i32 %97, 8
  store i32 %98, ptr %18, align 4
  %99 = load i32, ptr %12, align 4
  %100 = add i32 %99, 8
  store i32 %100, ptr %12, align 4
  store i32 0, ptr %19, align 4
  br label %101

101:                                              ; preds = %113, %96
  %102 = load i32, ptr %19, align 4
  %103 = load i32, ptr %18, align 4
  %104 = icmp slt i32 %102, %103
  br i1 %104, label %105, label %116

105:                                              ; preds = %101
  %106 = load ptr, ptr %11, align 8
  %107 = load i32, ptr @hf_scsi_persresv_key, align 4
  %108 = load ptr, ptr %9, align 8
  %109 = load i32, ptr %12, align 4
  %110 = call ptr @proto_tree_add_item(ptr noundef %106, i32 noundef %107, ptr noundef %108, i32 noundef %109, i32 noundef 8, i32 noundef 0)
  %111 = load i32, ptr %12, align 4
  %112 = add i32 %111, 8
  store i32 %112, ptr %12, align 4
  br label %113

113:                                              ; preds = %105
  %114 = load i32, ptr %19, align 4
  %115 = add i32 %114, 1
  store i32 %115, ptr %19, align 4
  br label %101, !llvm.loop !19

116:                                              ; preds = %101
  br label %151

117:                                              ; preds = %90
  %118 = load i16, ptr %17, align 2
  %119 = zext i16 %118 to i32
  %120 = and i32 %119, 31
  %121 = icmp eq i32 %120, 1
  br i1 %121, label %122, label %150

122:                                              ; preds = %117
  %123 = load i32, ptr %20, align 4
  %124 = icmp ne i32 %123, 0
  br i1 %124, label %125, label %150

125:                                              ; preds = %122
  %126 = load ptr, ptr %11, align 8
  %127 = load i32, ptr @hf_scsi_persresv_key, align 4
  %128 = load ptr, ptr %9, align 8
  %129 = load i32, ptr %12, align 4
  %130 = add i32 %129, 8
  %131 = call ptr @proto_tree_add_item(ptr noundef %126, i32 noundef %127, ptr noundef %128, i32 noundef %130, i32 noundef 8, i32 noundef 0)
  %132 = load ptr, ptr %11, align 8
  %133 = load i32, ptr @hf_scsi_persresv_scopeaddr, align 4
  %134 = load ptr, ptr %9, align 8
  %135 = load i32, ptr %12, align 4
  %136 = add i32 %135, 16
  %137 = call ptr @proto_tree_add_item(ptr noundef %132, i32 noundef %133, ptr noundef %134, i32 noundef %136, i32 noundef 4, i32 noundef 0)
  %138 = load ptr, ptr %11, align 8
  %139 = load i32, ptr @hf_scsi_persresv_scope, align 4
  %140 = load ptr, ptr %9, align 8
  %141 = load i32, ptr %12, align 4
  %142 = add i32 %141, 21
  %143 = call ptr @proto_tree_add_item(ptr noundef %138, i32 noundef %139, ptr noundef %140, i32 noundef %142, i32 noundef 1, i32 noundef 0)
  %144 = load ptr, ptr %11, align 8
  %145 = load i32, ptr @hf_scsi_persresv_type, align 4
  %146 = load ptr, ptr %9, align 8
  %147 = load i32, ptr %12, align 4
  %148 = add i32 %147, 21
  %149 = call ptr @proto_tree_add_item(ptr noundef %144, i32 noundef %145, ptr noundef %146, i32 noundef %148, i32 noundef 1, i32 noundef 0)
  br label %150

150:                                              ; preds = %125, %122, %117
  br label %151

151:                                              ; preds = %150, %116
  br label %152

152:                                              ; preds = %151, %30, %23
  ret void
}