; Function Attrs: nounwind uwtable
define hidden void @dissect_spc_persistentreservein(ptr noundef %0, ptr readnone captures(none) %1, ptr noundef %2, i32 noundef %3, i32 noundef %4, i32 noundef %5, i32 noundef %6, ptr noundef readonly %7) #0 {
  %.not = icmp eq ptr %2, null
  br i1 %.not, label %.loopexit, label %9

9:                                                ; preds = %8
  %10 = icmp ne i32 %4, 0
  %11 = icmp ne i32 %5, 0
  %or.cond = and i1 %10, %11
  br i1 %or.cond, label %12, label %27

12:                                               ; preds = %9
  %13 = load i32, ptr @hf_scsi_persresvin_svcaction, align 4
  %14 = tail call ptr @proto_tree_add_item(ptr noundef nonnull %2, i32 noundef %13, ptr noundef %0, i32 noundef %3, i32 noundef 1, i32 noundef 0) #10
  %15 = load i32, ptr @hf_scsi_alloclen16, align 4
  %16 = add i32 %3, 6
  %17 = tail call ptr @proto_tree_add_item(ptr noundef nonnull %2, i32 noundef %15, ptr noundef %0, i32 noundef %16, i32 noundef 2, i32 noundef 0) #10
  %18 = add i32 %3, 8
  %19 = load i32, ptr @hf_scsi_control, align 4
  %20 = load i32, ptr @ett_scsi_control, align 4
  %21 = tail call ptr @proto_tree_add_bitmask(ptr noundef nonnull %2, ptr noundef %0, i32 noundef %18, i32 noundef %19, i32 noundef %20, ptr noundef nonnull @cdb_control_fields, i32 noundef 0) #10
  %22 = tail call zeroext i8 @tvb_get_guint8(ptr noundef %0, i32 noundef %3) #10
  %23 = zext i8 %22 to i16
  %24 = getelementptr inbounds nuw i8, ptr %7, i64 8
  %25 = load ptr, ptr %24, align 8
  %26 = getelementptr inbounds nuw i8, ptr %25, i64 12
  store i16 %23, ptr %26, align 4
  br label %.loopexit

27:                                               ; preds = %9
  %.not60 = icmp eq ptr %7, null
  br i1 %.not60, label %35, label %28

28:                                               ; preds = %27
  %29 = getelementptr inbounds nuw i8, ptr %7, i64 8
  %30 = load ptr, ptr %29, align 8
  %31 = getelementptr inbounds nuw i8, ptr %30, i64 12
  %32 = load i16, ptr %31, align 4
  %33 = and i16 %32, 31
  %34 = zext nneg i16 %33 to i32
  br label %35

35:                                               ; preds = %27, %28
  %.056 = phi i32 [ %34, %28 ], [ 31, %27 ]
  %36 = load i32, ptr @hf_scsi_persresvin_generation_number, align 4
  %37 = tail call ptr @proto_tree_add_item(ptr noundef nonnull %2, i32 noundef %36, ptr noundef %0, i32 noundef %3, i32 noundef 4, i32 noundef 0) #10
  %38 = add i32 %3, 4
  %39 = tail call i32 @tvb_get_ntohl(ptr noundef %0, i32 noundef %38) #10
  %40 = load i32, ptr @hf_scsi_persresvin_additional_length, align 4
  %41 = tail call ptr @proto_tree_add_item(ptr noundef nonnull %2, i32 noundef %40, ptr noundef %0, i32 noundef %38, i32 noundef 4, i32 noundef 0) #10
  %42 = tail call i32 @llvm.umin.i32(i32 %6, i32 %39)
  %43 = icmp eq i32 %.056, 0
  br i1 %43, label %44, label %49

44:                                               ; preds = %35
  %45 = lshr i32 %42, 3
  %.not63 = icmp ult i32 %42, 8
  br i1 %.not63, label %.loopexit, label %.lr.ph

.lr.ph:                                           ; preds = %44, %.lr.ph
  %.062 = phi i32 [ %48, %.lr.ph ], [ 0, %44 ]
  %.055.in61 = phi i32 [ %.055, %.lr.ph ], [ %3, %44 ]
  %.055 = add i32 %.055.in61, 8
  %46 = load i32, ptr @hf_scsi_persresv_key, align 4
  %47 = tail call ptr @proto_tree_add_item(ptr noundef nonnull %2, i32 noundef %46, ptr noundef %0, i32 noundef %.055, i32 noundef 8, i32 noundef 0) #10
  %48 = add nuw nsw i32 %.062, 1
  %exitcond.not = icmp eq i32 %48, %45
  br i1 %exitcond.not, label %.loopexit, label %.lr.ph, !llvm.loop !18

49:                                               ; preds = %35
  %50 = icmp eq i32 %.056, 1
  %51 = icmp ne i32 %42, 0
  %or.cond3 = select i1 %50, i1 %51, i1 false
  br i1 %or.cond3, label %52, label %.loopexit

52:                                               ; preds = %49
  %53 = load i32, ptr @hf_scsi_persresv_key, align 4
  %54 = add i32 %3, 8
  %55 = tail call ptr @proto_tree_add_item(ptr noundef nonnull %2, i32 noundef %53, ptr noundef %0, i32 noundef %54, i32 noundef 8, i32 noundef 0) #10
  %56 = load i32, ptr @hf_scsi_persresv_scopeaddr, align 4
  %57 = add i32 %3, 16
  %58 = tail call ptr @proto_tree_add_item(ptr noundef nonnull %2, i32 noundef %56, ptr noundef %0, i32 noundef %57, i32 noundef 4, i32 noundef 0) #10
  %59 = load i32, ptr @hf_scsi_persresv_scope, align 4
  %60 = add i32 %3, 21
  %61 = tail call ptr @proto_tree_add_item(ptr noundef nonnull %2, i32 noundef %59, ptr noundef %0, i32 noundef %60, i32 noundef 1, i32 noundef 0) #10
  %62 = load i32, ptr @hf_scsi_persresv_type, align 4
  %63 = tail call ptr @proto_tree_add_item(ptr noundef nonnull %2, i32 noundef %62, ptr noundef %0, i32 noundef %60, i32 noundef 1, i32 noundef 0) #10
  br label %.loopexit

.loopexit:                                        ; preds = %.lr.ph, %44, %52, %49, %8, %12
  ret void
}